Certificate:
    Data:
        Version: 3 (0x2)
        Serial Number:
            cf:82:bd:4a:84:8a:62:c2
        Signature Algorithm: md5WithRSAEncryption
        Issuer: C=IT, ST=Italy, L=Mestre-Venezia, O=MIUR, OU=R&D, CN=ca.istituto.it/emailAddress=ca@istituto.it
        Validity
            Not Before: Apr 10 22:30:24 2005 GMT
            Not After : Apr  9 22:30:24 2008 GMT
        Subject: C=IT, ST=Italy, L=Mestre-Venezia, O=MIUR, OU=R&D, CN=client.istituto.it/emailAddress=client@istituto.it
        Subject Public Key Info:
            Public Key Algorithm: rsaEncryption
            RSA Public Key: (1024 bit)
                Modulus (1024 bit):
                    00:ec:b1:f3:34:33:84:a4:88:df:ef:6f:14:85:b5:
                    54:5d:15:f8:05:b4:b1:75:da:08:78:03:04:48:d1:
                    85:90:59:18:e7:ad:b7:1f:d4:12:08:0b:aa:9d:96:
                    b1:ac:fe:e9:05:b6:99:d2:05:89:37:65:e2:38:4f:
                    f4:8a:80:f5:d7:ba:67:80:23:85:97:db:6e:00:36:
                    51:8a:ae:38:32:f1:87:19:b3:4f:df:6f:40:ea:2f:
                    2c:78:28:3d:55:7f:77:1c:09:25:b4:ca:8e:be:97:
                    96:b2:22:9f:62:b7:ba:67:1f:24:9d:09:12:05:66:
                    47:40:07:5d:71:6e:a9:d5:f1
                Exponent: 65537 (0x10001)
        X509v3 extensions:
            X509v3 Basic Constraints: 
                CA:FALSE
            Netscape Comment: 
                OpenSSL Generated Certificate
            X509v3 Subject Key Identifier: 
                0B:66:A8:1F:91:2C:BF:89:7A:99:2C:7D:FD:68:1E:7B:A6:34:F2:CA
            X509v3 Authority Key Identifier: 
                keyid:6F:C4:9B:12:0B:61:F5:0C:1B:D7:09:A0:5D:12:D0:A4:7C:85:D5:F4
                DirName:/C=IT/ST=Italy/L=Mestre-Venezia/O=MIUR/OU=R&D/CN=ca.istituto.it/emailAddress=ca@istituto.it
                serial:CF:82:BD:4A:84:8A:62:BF

    Signature Algorithm: md5WithRSAEncryption
        42:98:d6:81:19:ab:98:e7:b1:11:ec:29:ea:e4:a9:ac:a0:9b:
        37:b4:f4:2d:00:a3:a6:db:f7:b3:7d:ea:46:29:0d:6e:18:17:
        e2:8c:97:d4:6c:ff:04:22:89:f1:20:1d:30:c6:c8:c4:49:1f:
        98:f3:61:7e:dd:f4:05:b1:3f:0f:94:30:8e:2d:ef:a1:95:b5:
        38:d3:ad:9b:a3:14:c6:13:f0:81:4d:95:39:4b:05:97:2d:03:
        b0:6b:aa:2f:be:ee:7a:b5:32:c7:d5:55:3a:67:16:88:12:ee:
        fb:20:f0:47:0c:53:de:f4:7d:f4:6f:bd:93:7a:47:10:8f:63:
        5a:29
-----BEGIN CERTIFICATE-----
MIIDvzCCAyigAwIBAgIJAM+CvUqEimLCMA0GCSqGSIb3DQEBBAUAMIGLMQswCQYD
VQQGEwJJVDEOMAwGA1UECBMFSXRhbHkxFzAVBgNVBAcTDk1lc3RyZS1WZW5lemlh
MQ0wCwYDVQQKEwRNSVVSMQwwCgYDVQQLFANSJkQxFzAVBgNVBAMTDmNhLmlzdGl0
dXRvLml0MR0wGwYJKoZIhvcNAQkBFg5jYUBpc3RpdHV0by5pdDAeFw0wNTA0MTAy
MjMwMjRaFw0wODA0MDkyMjMwMjRaMIGTMQswCQYDVQQGEwJJVDEOMAwGA1UECBMF
SXRhbHkxFzAVBgNVBAcTDk1lc3RyZS1WZW5lemlhMQ0wCwYDVQQKEwRNSVVSMQww
CgYDVQQLFANSJkQxGzAZBgNVBAMTEmNsaWVudC5pc3RpdHV0by5pdDEhMB8GCSqG
SIb3DQEJARYSY2xpZW50QGlzdGl0dXRvLml0MIGfMA0GCSqGSIb3DQEBAQUAA4GN
ADCBiQKBgQDssfM0M4SkiN/vbxSFtVRdFfgFtLF12gh4AwRI0YWQWRjnrbcf1BII
C6qdlrGs/ukFtpnSBYk3ZeI4T/SKgPXXumeAI4WX224ANlGKrjgy8YcZs0/fb0Dq
Lyx4KD1Vf3ccCSW0yo6+l5ayIp9it7pnHySdCRIFZkdAB11xbqnV8QIDAQABo4IB
HzCCARswCQYDVR0TBAIwADAsBglghkgBhvhCAQ0EHxYdT3BlblNTTCBHZW5lcmF0
ZWQgQ2VydGlmaWNhdGUwHQYDVR0OBBYEFAtmqB+RLL+Jepksff1oHnumNPLKMIHA
BgNVHSMEgbgwgbWAFG/EmxILYfUMG9cJoF0S0KR8hdX0oYGRpIGOMIGLMQswCQYD
VQQGEwJJVDEOMAwGA1UECBMFSXRhbHkxFzAVBgNVBAcTDk1lc3RyZS1WZW5lemlh
MQ0wCwYDVQQKEwRNSVVSMQwwCgYDVQQLFANSJkQxFzAVBgNVBAMTDmNhLmlzdGl0
dXRvLml0MR0wGwYJKoZIhvcNAQkBFg5jYUBpc3RpdHV0by5pdIIJAM+CvUqEimK/
MA0GCSqGSIb3DQEBBAUAA4GBAEKY1oEZq5jnsRHsKerkqaygmze09C0Ao6bb97N9
6kYpDW4YF+KMl9Rs/wQiifEgHTDGyMRJH5jzYX7d9AWxPw+UMI4t76GVtTjTrZuj
FMYT8IFNlTlLBZctA7Brqi++7nq1MsfVVTpnFogS7vsg8EcMU970ffRvvZN6RxCP
Y1op
-----END CERTIFICATE-----
