Certificate:
    Data:
        Version: 3 (0x2)
        Serial Number:
            cf:82:bd:4a:84:8a:62:c1
        Signature Algorithm: md5WithRSAEncryption
        Issuer: C=IT, ST=Italy, L=Mestre-Venezia, O=MIUR, OU=R&D, CN=ca.istituto.it/emailAddress=ca@istituto.it
        Validity
            Not Before: Apr 10 22:27:12 2005 GMT
            Not After : Apr  9 22:27:12 2008 GMT
        Subject: C=IT, ST=Italy, L=Mestre-Venezia, O=MIUR, OU=R&D, CN=rserver.istituto.it/emailAddress=rserver@istituto.it
        Subject Public Key Info:
            Public Key Algorithm: rsaEncryption
            RSA Public Key: (1024 bit)
                Modulus (1024 bit):
                    00:fa:f3:8f:2f:a6:e8:b3:bb:b1:69:4d:9b:97:eb:
                    1f:5c:ce:37:27:6b:cc:95:0f:28:93:b4:d2:6d:c0:
                    c2:d8:49:35:eb:3d:25:c5:dd:09:b5:5c:aa:8f:d4:
                    7d:9c:c2:76:25:3b:25:fd:95:5a:09:69:4d:86:29:
                    00:e8:62:67:70:63:08:85:f9:c6:5c:2e:cf:f7:ee:
                    3f:da:9b:7d:c6:26:1c:2b:96:bd:cf:49:ae:c4:0e:
                    09:91:37:9b:1e:31:c5:b0:f4:74:bb:af:29:d4:f7:
                    15:4f:34:48:f1:eb:1e:46:2e:a5:c4:f7:c6:d7:c0:
                    64:5a:42:d5:12:6d:f3:27:e3
                Exponent: 65537 (0x10001)
        X509v3 extensions:
            X509v3 Basic Constraints: 
                CA:FALSE
            Netscape Comment: 
                OpenSSL Generated Certificate
            X509v3 Subject Key Identifier: 
                BE:85:B1:C9:BD:12:7A:EB:CF:70:5F:B0:6F:46:16:DE:C1:6D:11:7F
            X509v3 Authority Key Identifier: 
                keyid:6F:C4:9B:12:0B:61:F5:0C:1B:D7:09:A0:5D:12:D0:A4:7C:85:D5:F4
                DirName:/C=IT/ST=Italy/L=Mestre-Venezia/O=MIUR/OU=R&D/CN=ca.istituto.it/emailAddress=ca@istituto.it
                serial:CF:82:BD:4A:84:8A:62:BF

    Signature Algorithm: md5WithRSAEncryption
        38:e9:20:cc:dc:29:16:51:60:a5:da:8c:1d:e3:8c:22:a8:2a:
        34:36:63:8b:01:e6:2d:71:ba:f2:4f:74:43:4a:9b:2e:d9:54:
        fa:f5:6b:14:44:a3:9b:07:18:ab:e0:09:ad:68:ee:1b:ad:d7:
        e4:d3:a1:4f:25:ba:b6:c5:bc:e4:c0:d7:cf:67:a0:1c:7e:8b:
        ba:89:85:d8:48:c9:78:79:e2:81:39:e9:68:54:92:4b:ee:63:
        f2:af:c4:4b:84:d6:2e:f3:be:44:fe:2b:3f:29:a2:49:ba:3d:
        b8:63:bc:e1:e1:1f:b1:00:10:69:46:51:c8:f7:4b:a7:a5:eb:
        b1:03
-----BEGIN CERTIFICATE-----
MIIDwTCCAyqgAwIBAgIJAM+CvUqEimLBMA0GCSqGSIb3DQEBBAUAMIGLMQswCQYD
VQQGEwJJVDEOMAwGA1UECBMFSXRhbHkxFzAVBgNVBAcTDk1lc3RyZS1WZW5lemlh
MQ0wCwYDVQQKEwRNSVVSMQwwCgYDVQQLFANSJkQxFzAVBgNVBAMTDmNhLmlzdGl0
dXRvLml0MR0wGwYJKoZIhvcNAQkBFg5jYUBpc3RpdHV0by5pdDAeFw0wNTA0MTAy
MjI3MTJaFw0wODA0MDkyMjI3MTJaMIGVMQswCQYDVQQGEwJJVDEOMAwGA1UECBMF
SXRhbHkxFzAVBgNVBAcTDk1lc3RyZS1WZW5lemlhMQ0wCwYDVQQKEwRNSVVSMQww
CgYDVQQLFANSJkQxHDAaBgNVBAMTE3JzZXJ2ZXIuaXN0aXR1dG8uaXQxIjAgBgkq
hkiG9w0BCQEWE3JzZXJ2ZXJAaXN0aXR1dG8uaXQwgZ8wDQYJKoZIhvcNAQEBBQAD
gY0AMIGJAoGBAPrzjy+m6LO7sWlNm5frH1zONydrzJUPKJO00m3AwthJNes9JcXd
CbVcqo/UfZzCdiU7Jf2VWglpTYYpAOhiZ3BjCIX5xlwuz/fuP9qbfcYmHCuWvc9J
rsQOCZE3mx4xxbD0dLuvKdT3FU80SPHrHkYupcT3xtfAZFpC1RJt8yfjAgMBAAGj
ggEfMIIBGzAJBgNVHRMEAjAAMCwGCWCGSAGG+EIBDQQfFh1PcGVuU1NMIEdlbmVy
YXRlZCBDZXJ0aWZpY2F0ZTAdBgNVHQ4EFgQUvoWxyb0SeuvPcF+wb0YW3sFtEX8w
gcAGA1UdIwSBuDCBtYAUb8SbEgth9Qwb1wmgXRLQpHyF1fShgZGkgY4wgYsxCzAJ
BgNVBAYTAklUMQ4wDAYDVQQIEwVJdGFseTEXMBUGA1UEBxMOTWVzdHJlLVZlbmV6
aWExDTALBgNVBAoTBE1JVVIxDDAKBgNVBAsUA1ImRDEXMBUGA1UEAxMOY2EuaXN0
aXR1dG8uaXQxHTAbBgkqhkiG9w0BCQEWDmNhQGlzdGl0dXRvLml0ggkAz4K9SoSK
Yr8wDQYJKoZIhvcNAQEEBQADgYEAOOkgzNwpFlFgpdqMHeOMIqgqNDZjiwHmLXG6
8k90Q0qbLtlU+vVrFESjmwcYq+AJrWjuG63X5NOhTyW6tsW85MDXz2egHH6LuomF
2EjJeHnigTnpaFSSS+5j8q/ES4TWLvO+RP4rPymiSbo9uGO84eEfsQAQaUZRyPdL
p6XrsQM=
-----END CERTIFICATE-----
