Certificate:
    Data:
        Version: 3 (0x2)
        Serial Number:
            cf:82:bd:4a:84:8a:62:c0
        Signature Algorithm: md5WithRSAEncryption
        Issuer: C=IT, ST=Italy, L=Mestre-Venezia, O=MIUR, OU=R&D, CN=ca.istituto.it/emailAddress=ca@istituto.it
        Validity
            Not Before: Apr 10 22:24:05 2005 GMT
            Not After : Apr  9 22:24:05 2008 GMT
        Subject: C=IT, ST=Italy, L=Mestre-Venezia, O=MIUR, OU=R&D, CN=server.istituto.it/emailAddress=server@istituto.it
        Subject Public Key Info:
            Public Key Algorithm: rsaEncryption
            RSA Public Key: (1024 bit)
                Modulus (1024 bit):
                    00:b6:f3:7b:f9:2c:83:48:08:e8:31:d3:06:09:33:
                    69:70:c2:fd:9b:cc:4d:fc:1c:8a:d9:af:24:a7:0b:
                    8b:6f:c8:7a:de:cb:21:eb:3d:d4:04:97:06:61:28:
                    1c:1c:d6:91:86:3e:08:16:6f:19:12:71:81:6c:f6:
                    b3:7f:9a:6e:ee:ef:46:93:fd:1c:02:8f:ea:64:0f:
                    d8:a0:d6:1b:a1:e5:76:7c:1a:90:09:5a:f3:61:e4:
                    ff:d0:ac:63:9d:72:5f:35:d5:c1:d2:95:17:cc:61:
                    fc:c1:d5:5b:cf:e5:3a:4f:eb:fc:c5:08:39:6f:1e:
                    d3:e5:f5:d4:17:16:e1:94:57
                Exponent: 65537 (0x10001)
        X509v3 extensions:
            X509v3 Basic Constraints: 
                CA:FALSE
            Netscape Comment: 
                OpenSSL Generated Certificate
            X509v3 Subject Key Identifier: 
                A5:47:FC:92:43:03:0E:F2:74:19:A3:6A:99:4F:66:33:2A:03:4B:1C
            X509v3 Authority Key Identifier: 
                keyid:6F:C4:9B:12:0B:61:F5:0C:1B:D7:09:A0:5D:12:D0:A4:7C:85:D5:F4
                DirName:/C=IT/ST=Italy/L=Mestre-Venezia/O=MIUR/OU=R&D/CN=ca.istituto.it/emailAddress=ca@istituto.it
                serial:CF:82:BD:4A:84:8A:62:BF

    Signature Algorithm: md5WithRSAEncryption
        93:42:aa:f4:82:a1:14:42:c9:00:23:cf:33:d1:a4:0f:1e:2b:
        06:e6:4e:31:e4:9a:8c:da:61:5e:fa:9c:c0:41:c8:83:31:31:
        6b:6a:92:ee:78:ef:be:8c:61:1e:ac:de:69:52:f8:cf:5a:88:
        ee:a8:2b:0c:75:cb:b9:82:44:55:44:b1:7d:ef:92:c9:70:01:
        56:a3:ef:da:8d:80:ab:4f:4b:98:a0:d1:1a:c4:6e:6f:90:fc:
        bc:39:1a:2c:46:05:e7:5c:4a:e8:8c:76:f7:ce:9f:29:98:7f:
        2e:84:a2:21:8e:68:04:56:10:6d:54:06:96:80:43:26:98:65:
        46:3a
-----BEGIN CERTIFICATE-----
MIIDvzCCAyigAwIBAgIJAM+CvUqEimLAMA0GCSqGSIb3DQEBBAUAMIGLMQswCQYD
VQQGEwJJVDEOMAwGA1UECBMFSXRhbHkxFzAVBgNVBAcTDk1lc3RyZS1WZW5lemlh
MQ0wCwYDVQQKEwRNSVVSMQwwCgYDVQQLFANSJkQxFzAVBgNVBAMTDmNhLmlzdGl0
dXRvLml0MR0wGwYJKoZIhvcNAQkBFg5jYUBpc3RpdHV0by5pdDAeFw0wNTA0MTAy
MjI0MDVaFw0wODA0MDkyMjI0MDVaMIGTMQswCQYDVQQGEwJJVDEOMAwGA1UECBMF
SXRhbHkxFzAVBgNVBAcTDk1lc3RyZS1WZW5lemlhMQ0wCwYDVQQKEwRNSVVSMQww
CgYDVQQLFANSJkQxGzAZBgNVBAMTEnNlcnZlci5pc3RpdHV0by5pdDEhMB8GCSqG
SIb3DQEJARYSc2VydmVyQGlzdGl0dXRvLml0MIGfMA0GCSqGSIb3DQEBAQUAA4GN
ADCBiQKBgQC283v5LINICOgx0wYJM2lwwv2bzE38HIrZrySnC4tvyHreyyHrPdQE
lwZhKBwc1pGGPggWbxkScYFs9rN/mm7u70aT/RwCj+pkD9ig1huh5XZ8GpAJWvNh
5P/QrGOdcl811cHSlRfMYfzB1VvP5TpP6/zFCDlvHtPl9dQXFuGUVwIDAQABo4IB
HzCCARswCQYDVR0TBAIwADAsBglghkgBhvhCAQ0EHxYdT3BlblNTTCBHZW5lcmF0
ZWQgQ2VydGlmaWNhdGUwHQYDVR0OBBYEFKVH/JJDAw7ydBmjaplPZjMqA0scMIHA
BgNVHSMEgbgwgbWAFG/EmxILYfUMG9cJoF0S0KR8hdX0oYGRpIGOMIGLMQswCQYD
VQQGEwJJVDEOMAwGA1UECBMFSXRhbHkxFzAVBgNVBAcTDk1lc3RyZS1WZW5lemlh
MQ0wCwYDVQQKEwRNSVVSMQwwCgYDVQQLFANSJkQxFzAVBgNVBAMTDmNhLmlzdGl0
dXRvLml0MR0wGwYJKoZIhvcNAQkBFg5jYUBpc3RpdHV0by5pdIIJAM+CvUqEimK/
MA0GCSqGSIb3DQEBBAUAA4GBAJNCqvSCoRRCyQAjzzPRpA8eKwbmTjHkmozaYV76
nMBByIMxMWtqku54776MYR6s3mlS+M9aiO6oKwx1y7mCRFVEsX3vkslwAVaj79qN
gKtPS5ig0RrEbm+Q/Lw5GixGBedcSuiMdvfOnymYfy6EoiGOaARWEG1UBpaAQyaY
ZUY6
-----END CERTIFICATE-----
